; Function Attrs: null_pointer_is_valid sspstrong uwtable
define internal zeroext i1 @dissect_t38_acdr_heur(ptr noundef %0, ptr noundef %1, ptr noundef %2, ptr readnone captures(none) %3) #0 {
  %5 = getelementptr inbounds nuw i8, ptr %1, i64 408
  %6 = load ptr, ptr %5, align 8
  %7 = load i32, ptr @proto_acdr, align 4
  %8 = tail call ptr @p_get_proto_data(ptr noundef %6, ptr noundef %1, i32 noundef %7, i32 noundef 0)
  %9 = ptrtoint ptr %8 to i64
  %10 = and i64 %9, 4294967295
  %11 = icmp eq i64 %10, 3
  br i1 %11, label %12, label %15

12:                                               ; preds = %4
  %13 = tail call i32 @dissect_t38_udp(ptr noundef %0, ptr noundef %1, ptr noundef %2, ptr poison)
  %14 = icmp ne i32 %13, 0
  br label %15

15:                                               ; preds = %4, %12
  %.0 = phi i1 [ %14, %12 ], [ false, %4 ]
  ret i1 %.0
}